target datalayout = "e-m:e-p270:32:32-p271:32:32-p272:64:64-i64:64-i128:128-f80:128-n8:16:32:64-S128"
target triple = "x86_64-pc-linux-gnu"

%struct.RelationData = type { %struct.RelFileLocator, ptr, i32, i32, i8, i8, i8, i8, i8, i32, i32, i32, i32, ptr, ptr, i32, %struct.LockInfoData, ptr, ptr, ptr, ptr, ptr, i8, ptr, ptr, ptr, ptr, ptr, ptr, i32, ptr, i8, ptr, ptr, i32, i8, i32, ptr, i8, ptr, ptr, ptr, ptr, ptr, ptr, ptr, i32, ptr, ptr, ptr, ptr, ptr, ptr, ptr, ptr, ptr, ptr, ptr, ptr, ptr, ptr, ptr, ptr, ptr, ptr, ptr, i32, i8, ptr }
%struct.RelFileLocator = type { i32, i32, i32 }
%struct.LockInfoData = type { %struct.LockRelId }
%struct.LockRelId = type { i32, i32 }
%struct.ScanKeyData = type { i32, i16, i16, i32, i32, %struct.FmgrInfo, i64 }
%struct.FmgrInfo = type { ptr, i32, i16, i8, i8, i8, ptr, ptr, ptr }
%struct.HeapTupleData = type { i32, %struct.ItemPointerData, i32, ptr }
%struct.ItemPointerData = type { %struct.BlockIdData, i16 }
%struct.BlockIdData = type { i16, i16 }

; Function Attrs: inlinehint nounwind uwtable
define internal i64 @PointerGetDatum(ptr noundef %0) #6 {
  %2 = alloca ptr, align 8
  store ptr %0, ptr %2, align 8
  %3 = load ptr, ptr %2, align 8
  %4 = ptrtoint ptr %3 to i64
  ret i64 %4
}

; Function Attrs: inlinehint nounwind uwtable
define internal i64 @Int32GetDatum(i32 noundef %0) #6 {
  %2 = alloca i32, align 4
  store i32 %0, ptr %2, align 4
  %3 = load i32, ptr %2, align 4
  %4 = sext i32 %3 to i64
  ret i64 %4
}

; Function Attrs: inlinehint nounwind uwtable
define internal i64 @ObjectIdGetDatum(i32 noundef %0) #6 {
  %2 = alloca i32, align 4
  store i32 %0, ptr %2, align 4
  %3 = load i32, ptr %2, align 4
  %4 = zext i32 %3 to i64
  ret i64 %4
}

; Function Attrs: nounwind uwtable
define dso_local void @CreateComments(i32 noundef %0, i32 noundef %1, i32 noundef %2, ptr noundef %3) #0 {
  %5 = alloca i32, align 4
  %6 = alloca i32, align 4
  %7 = alloca i32, align 4
  %8 = alloca ptr, align 8
  %9 = alloca ptr, align 8
  %10 = alloca [3 x %struct.ScanKeyData], align 16
  %11 = alloca ptr, align 8
  %12 = alloca ptr, align 8
  %13 = alloca ptr, align 8
  %14 = alloca [4 x i64], align 16
  %15 = alloca [4 x i8], align 1
  %16 = alloca [4 x i8], align 1
  %17 = alloca i32, align 4
  store i32 %0, ptr %5, align 4
  store i32 %1, ptr %6, align 4
  store i32 %2, ptr %7, align 4
  store ptr %3, ptr %8, align 8
  call void @llvm.lifetime.start.p0(i64 8, ptr %9) #7
  call void @llvm.lifetime.start.p0(i64 216, ptr %10) #7
  call void @llvm.lifetime.start.p0(i64 8, ptr %11) #7
  call void @llvm.lifetime.start.p0(i64 8, ptr %12) #7
  call void @llvm.lifetime.start.p0(i64 8, ptr %13) #7
  store ptr null, ptr %13, align 8
  call void @llvm.lifetime.start.p0(i64 32, ptr %14) #7
  call void @llvm.lifetime.start.p0(i64 4, ptr %15) #7
  call void @llvm.lifetime.start.p0(i64 4, ptr %16) #7
  call void @llvm.lifetime.start.p0(i64 4, ptr %17) #7
  %18 = load ptr, ptr %8, align 8
  %19 = icmp ne ptr %18, null
  br i1 %19, label %20, label %25

20:                                               ; preds = %4
  %21 = load ptr, ptr %8, align 8
  %22 = call i64 @strlen(ptr noundef %21) #9
  %23 = icmp eq i64 %22, 0
  br i1 %23, label %24, label %25

24:                                               ; preds = %20
  store ptr null, ptr %8, align 8
  br label %25

25:                                               ; preds = %24, %20, %4
  %26 = load ptr, ptr %8, align 8
  %27 = icmp ne ptr %26, null
  br i1 %27, label %28, label %56

28:                                               ; preds = %25
  store i32 0, ptr %17, align 4
  br label %29

29:                                               ; preds = %39, %28
  %30 = load i32, ptr %17, align 4
  %31 = icmp slt i32 %30, 4
  br i1 %31, label %32, label %42

32:                                               ; preds = %29
  %33 = load i32, ptr %17, align 4
  %34 = sext i32 %33 to i64
  %35 = getelementptr inbounds [4 x i8], ptr %15, i64 0, i64 %34
  store i8 0, ptr %35, align 1
  %36 = load i32, ptr %17, align 4
  %37 = sext i32 %36 to i64
  %38 = getelementptr inbounds [4 x i8], ptr %16, i64 0, i64 %37
  store i8 1, ptr %38, align 1
  br label %39

39:                                               ; preds = %32
  %40 = load i32, ptr %17, align 4
  %41 = add i32 %40, 1
  store i32 %41, ptr %17, align 4
  br label %29, !llvm.loop !6

42:                                               ; preds = %29
  %43 = load i32, ptr %5, align 4
  %44 = call i64 @ObjectIdGetDatum(i32 noundef %43)
  %45 = getelementptr inbounds [4 x i64], ptr %14, i64 0, i64 0
  store i64 %44, ptr %45, align 16
  %46 = load i32, ptr %6, align 4
  %47 = call i64 @ObjectIdGetDatum(i32 noundef %46)
  %48 = getelementptr inbounds [4 x i64], ptr %14, i64 0, i64 1
  store i64 %47, ptr %48, align 8
  %49 = load i32, ptr %7, align 4
  %50 = call i64 @Int32GetDatum(i32 noundef %49)
  %51 = getelementptr inbounds [4 x i64], ptr %14, i64 0, i64 2
  store i64 %50, ptr %51, align 16
  %52 = load ptr, ptr %8, align 8
  %53 = call ptr @cstring_to_text(ptr noundef %52)
  %54 = call i64 @PointerGetDatum(ptr noundef %53)
  %55 = getelementptr inbounds [4 x i64], ptr %14, i64 0, i64 3
  store i64 %54, ptr %55, align 8
  br label %56

56:                                               ; preds = %42, %25
  %57 = getelementptr inbounds [3 x %struct.ScanKeyData], ptr %10, i64 0, i64 0
  %58 = load i32, ptr %5, align 4
  %59 = call i64 @ObjectIdGetDatum(i32 noundef %58)
  call void @ScanKeyInit(ptr noundef %57, i16 noundef signext 1, i16 noundef zeroext 3, i32 noundef 184, i64 noundef %59)
  %60 = getelementptr inbounds [3 x %struct.ScanKeyData], ptr %10, i64 0, i64 1
  %61 = load i32, ptr %6, align 4
  %62 = call i64 @ObjectIdGetDatum(i32 noundef %61)
  call void @ScanKeyInit(ptr noundef %60, i16 noundef signext 2, i16 noundef zeroext 3, i32 noundef 184, i64 noundef %62)
  %63 = getelementptr inbounds [3 x %struct.ScanKeyData], ptr %10, i64 0, i64 2
  %64 = load i32, ptr %7, align 4
  %65 = call i64 @Int32GetDatum(i32 noundef %64)
  call void @ScanKeyInit(ptr noundef %63, i16 noundef signext 3, i16 noundef zeroext 3, i32 noundef 65, i64 noundef %65)
  %66 = call ptr @table_open(i32 noundef 2609, i32 noundef 3)
  store ptr %66, ptr %9, align 8
  %67 = load ptr, ptr %9, align 8
  %68 = getelementptr inbounds [3 x %struct.ScanKeyData], ptr %10, i64 0, i64 0
  %69 = call ptr @systable_beginscan(ptr noundef %67, i32 noundef 2675, i1 noundef zeroext true, ptr noundef null, i32 noundef 3, ptr noundef %68)
  store ptr %69, ptr %11, align 8
  br label %70

70:                                               ; preds = %56
  %71 = load ptr, ptr %11, align 8
  %72 = call ptr @systable_getnext(ptr noundef %71)
  store ptr %72, ptr %12, align 8
  %73 = icmp ne ptr %72, null
  br i1 %73, label %74, label %95

74:                                               ; preds = %70
  %75 = load ptr, ptr %8, align 8
  %76 = icmp eq ptr %75, null
  br i1 %76, label %77, label %81

77:                                               ; preds = %74
  %78 = load ptr, ptr %9, align 8
  %79 = load ptr, ptr %12, align 8
  %80 = getelementptr inbounds nuw %struct.HeapTupleData, ptr %79, i32 0, i32 1
  call void @CatalogTupleDelete(ptr noundef %78, ptr noundef %80)
  br label %94

81:                                               ; preds = %74
  %82 = load ptr, ptr %12, align 8
  %83 = load ptr, ptr %9, align 8
  %84 = getelementptr inbounds nuw %struct.RelationData, ptr %83, i32 0, i32 14
  %85 = load ptr, ptr %84, align 8
  %86 = getelementptr inbounds [4 x i64], ptr %14, i64 0, i64 0
  %87 = getelementptr inbounds [4 x i8], ptr %15, i64 0, i64 0
  %88 = getelementptr inbounds [4 x i8], ptr %16, i64 0, i64 0
  %89 = call ptr @heap_modify_tuple(ptr noundef %82, ptr noundef %85, ptr noundef %86, ptr noundef %87, ptr noundef %88)
  store ptr %89, ptr %13, align 8
  %90 = load ptr, ptr %9, align 8
  %91 = load ptr, ptr %12, align 8
  %92 = getelementptr inbounds nuw %struct.HeapTupleData, ptr %91, i32 0, i32 1
  %93 = load ptr, ptr %13, align 8
  call void @CatalogTupleUpdate(ptr noundef %90, ptr noundef %92, ptr noundef %93)
  br label %94

94:                                               ; preds = %81, %77
  br label %95

95:                                               ; preds = %94, %70
  %96 = load ptr, ptr %11, align 8
  call void @systable_endscan(ptr noundef %96)
  %97 = load ptr, ptr %13, align 8
  %98 = icmp eq ptr %97, null
  br i1 %98, label %99, label %111

99:                                               ; preds = %95
  %100 = load ptr, ptr %8, align 8
  %101 = icmp ne ptr %100, null
  br i1 %101, label %102, label %111

102:                                              ; preds = %99
  %103 = load ptr, ptr %9, align 8
  %104 = getelementptr inbounds nuw %struct.RelationData, ptr %103, i32 0, i32 14
  %105 = load ptr, ptr %104, align 8
  %106 = getelementptr inbounds [4 x i64], ptr %14, i64 0, i64 0
  %107 = getelementptr inbounds [4 x i8], ptr %15, i64 0, i64 0
  %108 = call ptr @heap_form_tuple(ptr noundef %105, ptr noundef %106, ptr noundef %107)
  store ptr %108, ptr %13, align 8
  %109 = load ptr, ptr %9, align 8
  %110 = load ptr, ptr %13, align 8
  call void @CatalogTupleInsert(ptr noundef %109, ptr noundef %110)
  br label %111

111:                                              ; preds = %102, %99, %95
  %112 = load ptr, ptr %13, align 8
  %113 = icmp ne ptr %112, null
  br i1 %113, label %114, label %116

114:                                              ; preds = %111
  %115 = load ptr, ptr %13, align 8
  call void @heap_freetuple(ptr noundef %115)
  br label %116

116:                                              ; preds = %114, %111
  %117 = load ptr, ptr %9, align 8
  call void @table_close(ptr noundef %117, i32 noundef 0)
  call void @llvm.lifetime.end.p0(i64 4, ptr %17) #7
  call void @llvm.lifetime.end.p0(i64 4, ptr %16) #7
  call void @llvm.lifetime.end.p0(i64 4, ptr %15) #7
  call void @llvm.lifetime.end.p0(i64 32, ptr %14) #7
  call void @llvm.lifetime.end.p0(i64 8, ptr %13) #7
  call void @llvm.lifetime.end.p0(i64 8, ptr %12) #7
  call void @llvm.lifetime.end.p0(i64 8, ptr %11) #7
  call void @llvm.lifetime.end.p0(i64 216, ptr %10) #7
  call void @llvm.lifetime.end.p0(i64 8, ptr %9) #7
  ret void
}