; Function Attrs: nounwind uwtable
define dso_local void @CreateComments(i32 noundef %0, i32 noundef %1, i32 noundef %2, ptr noundef %3) local_unnamed_addr #0 {
  %5 = alloca [3 x %struct.ScanKeyData], align 16
  %6 = alloca [4 x i64], align 16
  %7 = alloca [4 x i8], align 4
  %8 = alloca [4 x i8], align 4
  call void @llvm.lifetime.start.p0(i64 216, ptr nonnull %5) #6
  call void @llvm.lifetime.start.p0(i64 32, ptr nonnull %6) #6
  call void @llvm.lifetime.start.p0(i64 4, ptr nonnull %7) #6
  call void @llvm.lifetime.start.p0(i64 4, ptr nonnull %8) #6
  %.not = icmp eq ptr %3, null
  br i1 %.not, label %.thread, label %9

9:                                                ; preds = %4
  %char0 = load i8, ptr %3, align 1
  %10 = icmp eq i8 %char0, 0
  br i1 %10, label %.thread, label %.preheader.preheader

.preheader.preheader:                             ; preds = %9
  store i32 0, ptr %7, align 4
  store i32 16843009, ptr %8, align 4
  %11 = zext i32 %0 to i64
  store i64 %11, ptr %6, align 16
  %12 = zext i32 %1 to i64
  %13 = getelementptr inbounds nuw i8, ptr %6, i64 8
  store i64 %12, ptr %13, align 8
  %14 = sext i32 %2 to i64
  %15 = getelementptr inbounds nuw i8, ptr %6, i64 16
  store i64 %14, ptr %15, align 16
  %16 = tail call ptr @cstring_to_text(ptr noundef nonnull %3) #6
  %17 = ptrtoint ptr %16 to i64
  %18 = getelementptr inbounds nuw i8, ptr %6, i64 24
  store i64 %17, ptr %18, align 8
  br label %.thread

.thread:                                          ; preds = %9, %4, %.preheader.preheader
  %19 = phi i1 [ true, %.preheader.preheader ], [ false, %4 ], [ false, %9 ]
  %.03441 = phi i1 [ false, %.preheader.preheader ], [ true, %4 ], [ true, %9 ]
  %20 = zext i32 %0 to i64
  call void @ScanKeyInit(ptr noundef nonnull %5, i16 noundef signext 1, i16 noundef zeroext 3, i32 noundef 184, i64 noundef %20) #6
  %21 = getelementptr inbounds nuw i8, ptr %5, i64 72
  %22 = zext i32 %1 to i64
  call void @ScanKeyInit(ptr noundef nonnull %21, i16 noundef signext 2, i16 noundef zeroext 3, i32 noundef 184, i64 noundef %22) #6
  %23 = getelementptr inbounds nuw i8, ptr %5, i64 144
  %24 = sext i32 %2 to i64
  call void @ScanKeyInit(ptr noundef nonnull %23, i16 noundef signext 3, i16 noundef zeroext 3, i32 noundef 65, i64 noundef %24) #6
  %25 = call ptr @table_open(i32 noundef 2609, i32 noundef 3) #6
  %26 = call ptr @systable_beginscan(ptr noundef %25, i32 noundef 2675, i1 noundef zeroext true, ptr noundef null, i32 noundef 3, ptr noundef nonnull %5) #6
  %27 = call ptr @systable_getnext(ptr noundef %26) #6
  %.not38 = icmp eq ptr %27, null
  br i1 %.not38, label %36, label %28

28:                                               ; preds = %.thread
  br i1 %.03441, label %29, label %31

29:                                               ; preds = %28
  %30 = getelementptr inbounds nuw i8, ptr %27, i64 4
  call void @CatalogTupleDelete(ptr noundef %25, ptr noundef nonnull %30) #6
  br label %36

31:                                               ; preds = %28
  %32 = getelementptr inbounds nuw i8, ptr %25, i64 64
  %33 = load ptr, ptr %32, align 8
  %34 = call ptr @heap_modify_tuple(ptr noundef nonnull %27, ptr noundef %33, ptr noundef nonnull %6, ptr noundef nonnull %7, ptr noundef nonnull %8) #6
  %35 = getelementptr inbounds nuw i8, ptr %27, i64 4
  call void @CatalogTupleUpdate(ptr noundef %25, ptr noundef nonnull %35, ptr noundef %34) #6
  br label %36

36:                                               ; preds = %29, %31, %.thread
  %.033 = phi ptr [ null, %29 ], [ %34, %31 ], [ null, %.thread ]
  call void @systable_endscan(ptr noundef %26) #6
  %37 = icmp eq ptr %.033, null
  %or.cond = and i1 %19, %37
  br i1 %or.cond, label %38, label %42

38:                                               ; preds = %36
  %39 = getelementptr inbounds nuw i8, ptr %25, i64 64
  %40 = load ptr, ptr %39, align 8
  %41 = call ptr @heap_form_tuple(ptr noundef %40, ptr noundef nonnull %6, ptr noundef nonnull %7) #6
  call void @CatalogTupleInsert(ptr noundef %25, ptr noundef %41) #6
  br label %42

42:                                               ; preds = %38, %36
  %.1 = phi ptr [ %41, %38 ], [ %.033, %36 ]
  %.not39 = icmp eq ptr %.1, null
  br i1 %.not39, label %44, label %43

43:                                               ; preds = %42
  call void @heap_freetuple(ptr noundef nonnull %.1) #6
  br label %44

44:                                               ; preds = %43, %42
  call void @table_close(ptr noundef %25, i32 noundef 0) #6
  call void @llvm.lifetime.end.p0(i64 4, ptr nonnull %8) #6
  call void @llvm.lifetime.end.p0(i64 4, ptr nonnull %7) #6
  call void @llvm.lifetime.end.p0(i64 32, ptr nonnull %6) #6
  call void @llvm.lifetime.end.p0(i64 216, ptr nonnull %5) #6
  ret void
}